; Function Attrs: mustprogress nofree nounwind memory(readwrite, inaccessiblemem: none) uwtable
define dso_local void @_ZN4llvm7AArch648ArchInfo13findBySubArchENS_9StringRefE(ptr dead_on_unwind noalias writable writeonly sret(%"class.std::optional.0") align 8 captures(none) %0, ptr readonly captures(none) %1, i64 %2) local_unnamed_addr #4 align 2 {
  br label %4

4:                                                ; preds = %3, %_ZN4llvmeqENS_9StringRefES0_.exit.thread11
  %.0.idx13 = phi i64 [ 0, %3 ], [ %.0.add, %_ZN4llvmeqENS_9StringRefES0_.exit.thread11 ]
  %.0.ptr = getelementptr inbounds nuw i8, ptr @_ZN4llvm7AArch64L9ArchInfosE, i64 %.0.idx13
  %5 = load ptr, ptr %.0.ptr, align 8
  %6 = getelementptr inbounds nuw i8, ptr %5, i64 40
  %7 = getelementptr inbounds nuw i8, ptr %5, i64 48
  %8 = load i64, ptr %7, align 8
  %9 = icmp ne i64 %8, 0
  %.sroa.speculated5.i.i = zext i1 %9 to i64
  %10 = load ptr, ptr %6, align 8
  %11 = getelementptr inbounds nuw i8, ptr %10, i64 %.sroa.speculated5.i.i
  %12 = sub i64 %8, %.sroa.speculated5.i.i
  %.not.i = icmp eq i64 %12, %2
  br i1 %.not.i, label %13, label %_ZN4llvmeqENS_9StringRefES0_.exit.thread11

13:                                               ; preds = %4
  %14 = icmp ult i64 %8, 2
  br i1 %14, label %_ZN4llvmeqENS_9StringRefES0_.exit.thread, label %_ZN4llvmeqENS_9StringRefES0_.exit

_ZN4llvmeqENS_9StringRefES0_.exit:                ; preds = %13
  %bcmp.i = tail call i32 @bcmp(ptr %11, ptr %1, i64 %2)
  %15 = icmp eq i32 %bcmp.i, 0
  br i1 %15, label %_ZN4llvmeqENS_9StringRefES0_.exit.thread, label %_ZN4llvmeqENS_9StringRefES0_.exit.thread11

_ZN4llvmeqENS_9StringRefES0_.exit.thread:         ; preds = %13, %_ZN4llvmeqENS_9StringRefES0_.exit
  tail call void @llvm.memcpy.p0.p0.i64(ptr noundef nonnull align 8 dereferenceable(80) %0, ptr noundef nonnull align 8 dereferenceable(72) %5, i64 72, i1 false)
  br label %.loopexit

_ZN4llvmeqENS_9StringRefES0_.exit.thread11:       ; preds = %4, %_ZN4llvmeqENS_9StringRefES0_.exit
  %.0.add = add nuw nsw i64 %.0.idx13, 8
  %.not = icmp eq i64 %.0.add, 136
  br i1 %.not, label %.loopexit, label %4

.loopexit:                                        ; preds = %_ZN4llvmeqENS_9StringRefES0_.exit.thread11, %_ZN4llvmeqENS_9StringRefES0_.exit.thread
  %.sink = phi i8 [ 1, %_ZN4llvmeqENS_9StringRefES0_.exit.thread ], [ 0, %_ZN4llvmeqENS_9StringRefES0_.exit.thread11 ]
  %16 = getelementptr inbounds nuw i8, ptr %0, i64 72
  store i8 %.sink, ptr %16, align 8
  ret void
}